target datalayout = "e-m:e-p270:32:32-p271:32:32-p272:64:64-i64:64-i128:128-f80:128-n8:16:32:64-S128"
target triple = "x86_64-pc-linux-gnu"

@sec_malloc_lock = internal global ptr null, align 8
@secure_mem_used = internal global i64 0, align 8

; Function Attrs: nounwind uwtable
define i64 @CRYPTO_secure_used() #0 {
  %1 = alloca i64, align 8
  %2 = alloca i64, align 8
  %3 = alloca i32, align 4
  call void @llvm.lifetime.start.p0(i64 8, ptr %2) #7
  store i64 0, ptr %2, align 8, !tbaa !3
  %4 = load ptr, ptr @sec_malloc_lock, align 8, !tbaa !9
  %5 = call i32 @CRYPTO_THREAD_read_lock(ptr noundef %4)
  %6 = icmp ne i32 %5, 0
  br i1 %6, label %8, label %7

7:                                                ; preds = %0
  store i64 0, ptr %1, align 8
  store i32 1, ptr %3, align 4
  br label %13

8:                                                ; preds = %0
  %9 = load i64, ptr @secure_mem_used, align 8, !tbaa !3
  store i64 %9, ptr %2, align 8, !tbaa !3
  %10 = load ptr, ptr @sec_malloc_lock, align 8, !tbaa !9
  %11 = call i32 @CRYPTO_THREAD_unlock(ptr noundef %10)
  %12 = load i64, ptr %2, align 8, !tbaa !3
  store i64 %12, ptr %1, align 8
  store i32 1, ptr %3, align 4
  br label %13

13:                                               ; preds = %8, %7
  call void @llvm.lifetime.end.p0(i64 8, ptr %2) #7
  %14 = load i64, ptr %1, align 8
  ret i64 %14
}