; Function Attrs: nounwind uwtable
define i64 @CRYPTO_secure_used() local_unnamed_addr #0 {
  %1 = load ptr, ptr @sec_malloc_lock, align 8, !tbaa !3
  %2 = tail call i32 @CRYPTO_THREAD_read_lock(ptr noundef %1) #8
  %.not = icmp eq i32 %2, 0
  br i1 %.not, label %7, label %3

3:                                                ; preds = %0
  %4 = load i64, ptr @secure_mem_used, align 8, !tbaa !25
  %5 = load ptr, ptr @sec_malloc_lock, align 8, !tbaa !3
  %6 = tail call i32 @CRYPTO_THREAD_unlock(ptr noundef %5) #8
  br label %7

7:                                                ; preds = %0, %3
  %.0 = phi i64 [ %4, %3 ], [ 0, %0 ]
  ret i64 %.0
}